target datalayout = "e-m:e-p270:32:32-p271:32:32-p272:64:64-i64:64-i128:128-f80:128-n8:16:32:64-S128"
target triple = "x86_64-pc-linux-gnu"

%struct.AVFilterContext = type { ptr, ptr, ptr, ptr, ptr, i32, ptr, ptr, i32, ptr, ptr, i32, i32, ptr, ptr, ptr, ptr, i32, ptr, i32, i32 }
%struct.AudioLimiterContext = type { ptr, double, double, double, double, double, double, i32, i32, double, i32, i32, double, ptr, i32, i32, ptr, ptr, i32, i32, i64, i64, i32, ptr, double, i32, i32, i32 }

; Function Attrs: cold nounwind optsize uwtable
define internal i32 @init(ptr noundef %0) #0 {
  %2 = alloca ptr, align 8
  %3 = alloca ptr, align 8
  store ptr %0, ptr %2, align 8, !tbaa !4
  call void @llvm.lifetime.start.p0(i64 8, ptr %3) #10
  %4 = load ptr, ptr %2, align 8, !tbaa !4
  %5 = getelementptr inbounds nuw %struct.AVFilterContext, ptr %4, i32 0, i32 9
  %6 = load ptr, ptr %5, align 8, !tbaa !9
  store ptr %6, ptr %3, align 8, !tbaa !22
  %7 = load ptr, ptr %3, align 8, !tbaa !22
  %8 = getelementptr inbounds nuw %struct.AudioLimiterContext, ptr %7, i32 0, i32 2
  %9 = load double, ptr %8, align 8, !tbaa !24
  %10 = fdiv nsz double %9, 1.000000e+03
  store double %10, ptr %8, align 8, !tbaa !24
  %11 = load ptr, ptr %3, align 8, !tbaa !22
  %12 = getelementptr inbounds nuw %struct.AudioLimiterContext, ptr %11, i32 0, i32 3
  %13 = load double, ptr %12, align 8, !tbaa !30
  %14 = fdiv nsz double %13, 1.000000e+03
  store double %14, ptr %12, align 8, !tbaa !30
  %15 = load ptr, ptr %3, align 8, !tbaa !22
  %16 = getelementptr inbounds nuw %struct.AudioLimiterContext, ptr %15, i32 0, i32 4
  store double 1.000000e+00, ptr %16, align 8, !tbaa !31
  %17 = load ptr, ptr %3, align 8, !tbaa !22
  %18 = getelementptr inbounds nuw %struct.AudioLimiterContext, ptr %17, i32 0, i32 11
  store i32 -1, ptr %18, align 4, !tbaa !32
  %19 = load ptr, ptr %3, align 8, !tbaa !22
  %20 = getelementptr inbounds nuw %struct.AudioLimiterContext, ptr %19, i32 0, i32 12
  %21 = load double, ptr %20, align 8, !tbaa !33
  %22 = fsub nsz double %21, 5.000000e-01
  %23 = call nsz double @llvm.pow.f64(double 5.000000e-01, double %22)
  %24 = fmul nsz double %23, 2.000000e+00
  %25 = fmul nsz double %24, -1.000000e+00
  %26 = load ptr, ptr %3, align 8, !tbaa !22
  %27 = getelementptr inbounds nuw %struct.AudioLimiterContext, ptr %26, i32 0, i32 12
  store double %25, ptr %27, align 8, !tbaa !33
  call void @llvm.lifetime.end.p0(i64 8, ptr %3) #10
  ret i32 0
}