; Function Attrs: cold mustprogress nofree norecurse nosync nounwind optsize willreturn memory(readwrite, inaccessiblemem: none) uwtable
define internal noundef i32 @init(ptr noundef readonly captures(none) %0) #0 {
  %2 = getelementptr inbounds nuw i8, ptr %0, i64 72
  %3 = load ptr, ptr %2, align 8, !tbaa !4
  %4 = getelementptr inbounds nuw i8, ptr %3, i64 16
  %5 = load double, ptr %4, align 8, !tbaa !20
  %6 = fdiv nsz double %5, 1.000000e+03
  store double %6, ptr %4, align 8, !tbaa !20
  %7 = getelementptr inbounds nuw i8, ptr %3, i64 24
  %8 = load double, ptr %7, align 8, !tbaa !26
  %9 = fdiv nsz double %8, 1.000000e+03
  store double %9, ptr %7, align 8, !tbaa !26
  %10 = getelementptr inbounds nuw i8, ptr %3, i64 32
  store double 1.000000e+00, ptr %10, align 8, !tbaa !27
  %11 = getelementptr inbounds nuw i8, ptr %3, i64 76
  store i32 -1, ptr %11, align 4, !tbaa !28
  %12 = getelementptr inbounds nuw i8, ptr %3, i64 80
  %13 = load double, ptr %12, align 8, !tbaa !29
  %mul = fsub nsz double 5.000000e-01, %13
  %exp2 = tail call nsz double @llvm.exp2.f64(double %mul)
  %14 = fmul nsz double %exp2, -2.000000e+00
  store double %14, ptr %12, align 8, !tbaa !29
  ret i32 0
}